ccopy_reg
_reconstructor
p0
(cnltk.classify.naivebayes
NaiveBayesClassifier
p1
c__builtin__
object
p2
Ntp3
Rp4
(dp5
S'_labels'
p6
(lp7
I1
aI2
asS'_feature_probdist'
p8
(dp9
(I1
S'tooLongSequences'
p10
tp11
g0
(cnltk.probability
ELEProbDist
p12
g2
Ntp13
Rp14
(dp15
S'_gamma'
p16
F0.5
sS'_N'
p17
I783
sS'_freqdist'
p18
cnltk.probability
FreqDist
p19
((dp20
I00
I266
sI01
I517
stp21
Rp22
sS'_bins'
p23
I2
sS'_divisor'
p24
F784.0
sbs(I1
S'isAboutED'
p25
tp26
g0
(g12
g2
Ntp27
Rp28
(dp29
g16
F0.5
sg17
I783
sg18
g19
((dp30
I0
I345
sI1
I120
sI2
I93
sI3
I25
sI4
I54
sI5
I14
sI6
I29
sI7
I1
sI8
I22
sI9
I4
sI10
I8
sI12
I9
sI13
I1
sI14
I19
sI15
I1
sI16
I7
sI18
I9
sI20
I1
sI36
I8
sI43
I1
sI45
I6
sI48
I6
stp31
Rp32
sg23
I27
sg24
F796.5
sbs(I1
S'hasHTML'
p33
tp34
g0
(g12
g2
Ntp35
Rp36
(dp37
g16
F0.5
sg17
I783
sg18
g19
((dp38
I00
I377
sI01
I406
stp39
Rp40
sg23
I2
sg24
F784.0
sbs(I2
S'isAboutHealth'
p41
tp42
g0
(g12
g2
Ntp43
Rp44
(dp45
g16
F0.5
sg17
I217
sg18
g19
((dp46
I0
I35
sI1
I40
sI2
I37
sI3
I17
sI4
I9
sI5
I11
sI6
I4
sI7
I5
sI136
I1
sI9
I8
sI10
I1
sI11
I1
sI12
I1
sI13
I5
sI14
I1
sI16
I1
sI17
I2
sI18
I1
sI19
I2
sI148
I1
sI22
I1
sI151
I1
sI25
I1
sI26
I3
sI29
I1
sI31
I1
sI32
I1
sI33
I1
sI38
I1
sI39
I1
sI41
I1
sI8
I3
sI50
I3
sI49
I8
sI81
I1
sI215
I1
sI89
I1
sI222
I2
sI96
I1
sI146
I1
stp47
Rp48
sg23
I56
sg24
F245.0
sbs(I1
g41
tp49
g0
(g12
g2
Ntp50
Rp51
(dp52
g16
F0.5
sg17
I783
sg18
g19
((dp53
I0
I172
sI1
I97
sI2
I59
sI3
I106
sI4
I40
sI5
I30
sI6
I62
sI7
I16
sI8
I45
sI9
I12
sI10
I16
sI11
I13
sI12
I23
sI13
I9
sI14
I8
sI15
I7
sI16
I12
sI17
I4
sI18
I3
sI19
I2
sI20
I1
sI22
I1
sI23
I5
sI24
I1
sI25
I1
sI26
I1
sI27
I1
sI28
I4
sI30
I5
sI32
I3
sI39
I1
sI40
I2
sI41
I1
sI43
I3
sI44
I4
sI45
I5
sI47
I2
sI49
I1
sI52
I2
sI53
I1
sI54
I1
sI230
I1
stp54
Rp55
sg23
I56
sg24
F811.0
sbs(I2
S'cosineSimilarityToHam'
p56
tp57
g0
(g12
g2
Ntp58
Rp59
(dp60
g16
F0.5
sg17
I217
sg18
g19
((dp61
F1.0000000000000009
I9
sF1.000000000000001
I7
sF1.0000000000000142
I1
sF0.9999999999999931
I1
sF0.9999999999999988
I3
sF0.9999999999999967
I3
sF1.0000000000000098
I1
sF1.0000000000000002
I10
sF0.999999999999995
I1
sF0.9999999999999984
I4
sF1.0
I4
sF1.0000000000000004
I14
sF0.9999999999999987
I5
sF1.0000000000000049
I1
sF0.9999999999999882
I1
sF0.9999999999999921
I1
sF0.9999999999999999
I6
sF1.0000000000000007
I10
sF0.999999999999997
I1
sF1.0000000000000042
I3
sF0.9999999999999978
I3
sF0.9999999999999918
I1
sF0.9999999999999936
I1
sF0.9999999999999811
I1
sF1.0000000000000082
I1
sF0.9999999999999919
I1
sF0.9999999999999989
I5
sF1.0000000000000036
I4
sF1.0000000000000013
I6
sF0.9999999999999991
I2
sF1.0000000000000058
I1
sF0.9999999999999986
I1
sF1.0000000000000016
I8
sF0.9999999999999992
I6
sF1.0000000000000018
I7
sF0.9999999999999993
I16
sF0.9999999999999958
I2
sF0.9999999999999997
I3
sF1.000000000000002
I1
sF0.9999999999999994
I8
sF0.9999999999999976
I1
sF1.0000000000000073
I1
sF1.0000000000000022
I2
sF0.9999999999999996
I8
sF0.999999999999999
I2
sF1.0000000000000024
I2
sF0.9999999999999979
I1
sF1.0000000000000027
I2
sF0.9999999999999856
I1
sF1.0000000000000053
I3
sF0.9999999999999983
I1
sF1.0000000000000029
I3
sF0.9999999999999981
I1
sF0.999999999999998
I1
sF0.9999999999999881
I1
sF0.9999999999999998
I5
sF0.999999999999986
I1
sF1.000000000000003
I2
sF0.9999999999999964
I2
sF0.9999999999999977
I2
sF0.9999999999999917
I1
sF1.0000000000000038
I3
sF0.9999999999999934
I1
sF0.9999999999999966
I1
sF0.9999999999999982
I3
sF1.000000000000013
I1
sF0.9999999999999961
I1
stp62
Rp63
sg23
I601
sg24
F517.5
sbs(I1
S'isAboutMoney'
p64
tp65
g0
(g12
g2
Ntp66
Rp67
(dp68
g16
F0.5
sg17
I783
sg18
g19
((dp69
I0
I102
sI1
I103
sI2
I123
sI3
I137
sI4
I116
sI5
I21
sI6
I72
sI7
I21
sI8
I23
sI9
I9
sI10
I14
sI11
I4
sI12
I4
sI13
I3
sI14
I3
sI15
I1
sI16
I3
sI17
I1
sI18
I4
sI19
I2
sI20
I1
sI21
I4
sI22
I1
sI24
I2
sI25
I2
sI27
I1
sI31
I1
sI160
I1
sI39
I1
sI40
I1
sI41
I1
sI58
I1
stp70
Rp71
sg23
I47
sg24
F806.5
sbs(I2
S'cosineSimilarityToSpam'
p72
tp73
g0
(g12
g2
Ntp74
Rp75
(dp76
g16
F0.5
sg17
I217
sg18
g19
((dp77
F0.772162199111281
I1
sF0.5380699649543679
I1
sF0.6036510500009168
I1
sF0.6081714664362885
I1
sF0.5849611797214578
I1
sF0.533228880634808
I1
sF0.46908474404961004
I1
sF0.12397825834641943
I1
sF0.6041550738456871
I1
sF0.46987185481356786
I2
sF0.6501038201184353
I2
sF0.4887585706435005
I1
sF0.34402204355359356
I1
sF0.749838116701474
I1
sF0.405736098265671
I1
sF0.39750302893016803
I1
sF0.4078929535247373
I1
sF0.462175261564324
I1
sF0.6034820323168468
I1
sF0.416710269878066
I1
sF0.6260197428872755
I1
sF0.6742699417302357
I1
sF0.8055180756534269
I1
sF0.6109507374579272
I1
sF0.2238099651585915
I1
sF0.8122671894700254
I1
sF0.4711842696741151
I1
sF0.5564272728997798
I1
sF0.6107619147450076
I1
sF0.43866433468235827
I1
sF0.7124042873688632
I1
sF0.5280197053025131
I1
sF0.3616363003952019
I1
sF0.6297870075209048
I1
sF0.5725937293247331
I1
sF0.49966742669023134
I1
sF0.20852674097645696
I1
sF0.34196176255002425
I2
sF0.5578122576571168
I1
sF0.31523837901326307
I1
sF0.675654219188486
I1
sF0.12308219679668209
I1
sF0.45627000406288515
I1
sF0.5529702206744889
I1
sF0.518868257899117
I1
sF0.3273136873839271
I1
sF0.4113170172674408
I1
sF0.6122310701768325
I1
sF0.4995003027818811
I1
sF0.724359331529803
I1
sF0.4156379996193195
I1
sF0.5593956145949694
I1
sF0.6083884878731528
I1
sF0.5158123288074482
I1
sF0.6096614711260531
I1
sF0.608674118631458
I1
sF0.5397530299436336
I1
sF0.307434476463044
I1
sF0.8154414442443914
I1
sF0.7901452347515527
I1
sF0.6867895891150023
I1
sF0.41587904964208033
I1
sF0.5596039824697608
I1
sF0.7000778520053361
I1
sF0.3090337924377824
I1
sF0.5481899614334601
I1
sF0.364497822921295
I1
sF0.5365965102453988
I1
sF0.6274553225471564
I1
sF0.5806113174547607
I1
sF0.28234057354203995
I1
sF0.463604258982337
I1
sF0.6568342217675851
I1
sF0.4962258821090901
I1
sF0.19560488524490172
I1
sF0.7129436530910447
I1
sF0.6005238100419361
I1
sF0.8012224279762555
I1
sF0.5206320458997098
I1
sF0.4636140405961041
I1
sF0.3712665392509011
I1
sF0.5838168776287666
I1
sF0.5956274196174706
I1
sF0.3913891875358382
I1
sF0.47713738344693835
I2
sF0.24841007485322703
I1
sF0.16065689824728224
I1
sF0.6687635154847698
I1
sF0.638082622335172
I1
sF0.4933143267278125
I1
sF0.6156467245814521
I1
sF0.25312835245262744
I1
sF0.7908986868245105
I1
sF0.16126030224972926
I1
sF0.6435314521931959
I1
sF0.6958714839846785
I1
sF0.6447669384893667
I1
sF0.6226776959795703
I1
sF0.5691009890058993
I1
sF0.5714970962776198
I1
sF0.6554795646971701
I1
sF0.6858171369197672
I1
sF0.48955506840017166
I2
sF0.5923642075006292
I1
sF0.5383831424700397
I1
sF0.597917455114195
I1
sF0.5662685809926631
I1
sF0.6744803383428867
I1
sF0.5837215385054252
I1
sF0.6549495921587728
I1
sF0.5986489264420441
I1
sF0.6388999458527325
I1
sF0.5376152052203119
I1
sF0.4885654865464269
I1
sF0.46693582665759603
I1
sF0.5139041985743762
I1
sF0.1090846755485112
I1
sF0.6540750556837445
I1
sF0.7701486652010486
I1
sF0.5794226243071933
I1
sF0.3069117822851299
I1
sF0.505805404929511
I1
sF0.4394944472687617
I1
sF0.18708155380922906
I1
sF0.6438213919330114
I1
sF0.5216536743245495
I1
sF0.4762650304496586
I1
sF0.4105400627523993
I1
sF0.524826206682085
I1
sF0.6107810991718494
I2
sF0.42972191208323796
I1
sF0.558102292254457
I1
sF0.2693073581833293
I1
sF0.6139117909591426
I1
sF0.4523331746160951
I1
sF0.5818278048560288
I1
sF0.2809129588212164
I1
sF0.6389848463324586
I1
sF0.2622434737990705
I1
sF0.21567128329401825
I1
sF0.6543044345084708
I1
sF0.8135203619206723
I1
sF0.5443426872907835
I1
sF0.5416205748289512
I1
sF0.12088580120293979
I1
sF0.6023563683797547
I1
sF0.5172822765011221
I1
sF0.3194236442995254
I1
sF0.3371744170949589
I1
sF0.40327879928696714
I1
sF0.4999125919962554
I1
sF0.4519606565430362
I1
sF0.4835179787685434
I1
sF0.46154411210928675
I1
sF0.6257478690013537
I1
sF0.6109473207286544
I2
sF0.7747807012404705
I1
sF0.7727875225093142
I1
sF0.49824211562122156
I2
sF0.4145648638184073
I1
sF0.47686431431574416
I2
sF0.4427379927281647
I1
sF0.5988797676283467
I1
sF0.5540973682550119
I1
sF0.5535692715654861
I1
sF0.7136017839262281
I1
sF0.6063255833624372
I1
sF0.30495570013230994
I1
sF0.08207055414094683
I1
sF0.4983452366343925
I1
sF0.6012537102208821
I1
sF0.6477036016153425
I1
sF0.4536470100252651
I1
sF0.22095679350834407
I1
sF0.5071637282473006
I1
sF0.6755542376404279
I1
sF0.5030719911717709
I1
sF0.588213756504352
I1
sF0.6867837062850957
I1
sF0.5126671486828022
I1
sF0.604319047296953
I2
sF0.6137807107155965
I1
sF0.5520248153563003
I1
sF0.5859515424043917
I1
sF0.710721230991791
I1
sF0.49786924283527945
I1
sF0.25945483707703526
I1
sF0.2549873500392735
I1
sF0.7020675963564189
I1
sF0.3405844754261578
I1
sF0.5269608343624037
I1
sF0.28320447473666843
I1
sF0.40168833049302777
I1
sF0.5582835551755827
I1
sF0.6461214911097152
I1
sF0.621793975506823
I1
sF0.6134570423206506
I2
sF0.6372416403242122
I1
sF0.708991042417115
I1
sF0.7178933545323826
I1
sF0.7166168623027229
I1
sF0.46216547247205725
I1
sF0.37165739115285606
I1
sF0.48319876120220573
I1
sF0.5829582204247158
I1
sF0.6856641767640558
I1
stp78
Rp79
sg23
I300
sg24
F367.0
sbs(I2
g10
tp80
g0
(g12
g2
Ntp81
Rp82
(dp83
g16
F0.5
sg17
I217
sg18
g19
((dp84
I00
I77
sI01
I140
stp85
Rp86
sg23
I2
sg24
F218.0
sbs(I1
g72
tp87
g0
(g12
g2
Ntp88
Rp89
(dp90
g16
F0.5
sg17
I783
sg18
g19
((dp91
F1.0000000000000007
I38
sF1.0
I40
sF0.9999999999999931
I1
sF1.0000000000000027
I7
sF1.0000000000000036
I5
sF0.9999999999999984
I12
sF0.9999999999999988
I2
sF1.0000000000000002
I78
sF0.9999999999999986
I4
sF0.9999999999999907
I2
sF0.9999999999999954
I3
sF0.999999999999997
I3
sF1.000000000000009
I1
sF1.0000000000000004
I67
sF0.9999999999999969
I1
sF0.9999999999999942
I1
sF1.0000000000000049
I2
sF0.9999999999999936
I1
sF0.9999999999999902
I1
sF0.9999999999999999
I21
sF1.0000000000000078
I1
sF0.9999999999999934
I1
sF1.0000000000000042
I2
sF0.9999999999999978
I2
sF1.000000000000012
I1
sF0.9999999999999957
I1
sF0.9999999999999996
I38
sF1.000000000000008
I2
sF0.9999999999999971
I4
sF0.9999999999999974
I3
sF0.9999999999999953
I2
sF0.9999999999999992
I21
sF1.0000000000000029
I9
sF1.000000000000001
I12
sF0.9999999999999972
I4
sF0.999999999999995
I1
sF0.9999999999999989
I12
sF1.0000000000000013
I10
sF0.9999999999999973
I3
sF0.9999999999999963
I4
sF0.9999999999999964
I1
sF1.0000000000000016
I17
sF0.9999999999999939
I1
sF1.000000000000005
I1
sF1.0000000000000009
I18
sF1.0000000000000087
I1
sF0.9999999999999938
I1
sF1.0000000000000164
I1
sF1.0000000000000018
I10
sF0.9999999999999976
I5
sF1.0000000000000044
I4
sF0.9999999999999979
I3
sF0.999999999999988
I1
sF0.9999999999999991
I34
sF0.9999999999999958
I1
sF1.0000000000000158
I1
sF1.000000000000002
I9
sF0.9999999999999977
I1
sF1.0000000000000115
I1
sF1.0000000000000073
I1
sF0.9999999999999993
I20
sF0.9999999999999933
I1
sF1.0000000000000022
I6
sF0.999999999999996
I2
sF1.000000000000006
I1
sF0.999999999999999
I10
sF1.0000000000000122
I2
sF1.0000000000000024
I3
sF0.9999999999999961
I2
sF0.9999999999999948
I3
sF0.9999999999999987
I4
sF0.9999999999999966
I3
sF1.0000000000000098
I1
sF0.999999999999998
I5
sF1.0000000000000053
I6
sF0.9999999999999962
I1
sF1.0000000000000064
I1
sF0.9999999999999981
I1
sF1.0000000000000047
I5
sF0.9999999999999997
I50
sF1.0000000000000082
I1
sF0.9999999999999998
I31
sF1.000000000000003
I5
sF0.9999999999999982
I3
sF1.000000000000004
I2
sF1.0000000000000118
I2
sF0.9999999999999994
I8
sF1.0000000000000038
I3
sF1.0000000000000033
I44
sF0.9999999999999983
I15
sF1.000000000000011
I1
sF0.9999999999999946
I1
sF1.0000000000000069
I1
sF0.9999999999999968
I4
stp92
Rp93
sg23
I300
sg24
F933.0
sbs(I2
g33
tp94
g0
(g12
g2
Ntp95
Rp96
(dp97
g16
F0.5
sg17
I217
sg18
g19
((dp98
I00
I177
sI01
I40
stp99
Rp100
sg23
I2
sg24
F218.0
sbs(I1
g56
tp101
g0
(g12
g2
Ntp102
Rp103
(dp104
g16
F0.5
sg17
I783
sg18
g19
((dp105
F0.0
I5
sF0.3328578476192984
I1
sF0.27640724287568896
I1
sF0.3197705762648114
I1
sF0.20465564837851014
I1
sF0.28197229239358507
I1
sF0.4413481988914109
I1
sF0.5915355777410141
I1
sF0.5901704647329927
I1
sF0.17966831037883663
I1
sF0.2873740265628941
I1
sF0.43256998779321787
I1
sF0.510604157740861
I5
sF0.2765325387232909
I1
sF0.38258672632845825
I1
sF0.4280545807812618
I1
sF0.25178934170198175
I1
sF0.6302066088549954
I1
sF0.07944407119985641
I2
sF0.22614700307643962
I1
sF0.6978230771547749
I1
sF0.3383152648569713
I1
sF0.33710195328900827
I1
sF0.2639177022782838
I1
sF0.5921068254470898
I1
sF0.17169959396038134
I1
sF0.11262128322326549
I1
sF0.5034986005998101
I1
sF0.5475512020307169
I1
sF0.7124188449381544
I1
sF0.3184123316866476
I1
sF0.2639713582283154
I1
sF0.305974631296848
I1
sF0.1529244185216248
I1
sF0.38311937618035674
I1
sF0.3038933597067962
I1
sF0.35176614174229526
I1
sF0.5439513377082855
I1
sF0.4446706431713033
I1
sF0.3965921745090548
I5
sF0.8154414442443912
I1
sF0.3697111983224236
I1
sF0.5895055099699608
I1
sF0.8125649276955573
I28
sF0.5234990932307817
I1
sF0.30903379243778245
I1
sF0.22784068314802963
I1
sF0.6777697465189196
I1
sF0.07803184865288529
I41
sF0.7324582043831498
I1
sF0.06260879033472617
I1
sF0.44094311281283205
I1
sF0.4917228685603817
I1
sF0.24376227805589257
I1
sF0.6599443918396216
I1
sF0.22307303022840552
I1
sF0.3340456983883019
I1
sF0.3550708807606223
I1
sF0.6024740782683621
I1
sF0.5114795545031248
I1
sF0.5272186879899806
I1
sF0.5731607463305705
I1
sF0.2490172069917869
I1
sF0.41671591665304575
I1
sF0.4209361967803802
I1
sF0.5299931571887556
I1
sF0.4472145452228658
I1
sF0.5819431589814876
I1
sF0.20708790572917496
I1
sF0.44502753370843523
I1
sF0.3404271044608362
I1
sF0.7333048677903055
I2
sF0.2959435636160225
I1
sF0.18578139252250697
I1
sF0.08162231919434118
I1
sF0.2830550159261935
I1
sF0.5680204806247413
I1
sF0.7013589325050043
I1
sF0.35219831183733435
I1
sF0.7824584458044646
I1
sF0.43618578806610825
I4
sF0.4354425187211135
I1
sF0.3632382274726083
I1
sF0.6461504947411832
I2
sF0.7669107002576196
I1
sF0.45578058051503323
I1
sF0.3956311497461994
I1
sF0.6209558558169145
I1
sF0.24589655605369867
I1
sF0.7369357677832435
I1
sF0.7613793947560739
I1
sF0.36199793512622036
I1
sF0.7396678083252689
I1
sF0.33056791441256417
I1
sF0.05453377458631393
I1
sF0.22737727665932048
I2
sF0.6082450596278486
I1
sF0.4863016239822317
I1
sF0.6297802224616772
I1
sF0.3341401468573434
I1
sF0.31650253698895586
I1
sF0.4399522203392011
I1
sF0.3109666974815079
I1
sF0.6368057080323775
I1
sF0.2627492828473479
I1
sF0.4134413886485359
I1
sF0.6349782341383384
I1
sF0.519961060838827
I1
sF0.31820306400026643
I1
sF0.2251066431533411
I1
sF0.35691294436910825
I1
sF0.719978997746783
I1
sF0.7783510203582016
I1
sF0.2934653530199864
I1
sF0.36326751988772354
I1
sF0.30495570013230994
I1
sF0.3698925769990436
I1
sF0.6422840294251125
I1
sF0.5489165402511171
I2
sF0.7290618050655071
I1
sF0.3568010169608838
I2
sF0.620164839729875
I1
sF0.5069577392617661
I1
sF0.5201627937326982
I1
sF0.7681061979490102
I1
sF0.426480827917919
I1
sF0.4291278033778825
I1
sF0.4373701736347305
I1
sF0.2854990355122514
I4
sF0.3163895583608581
I1
sF0.15759170123707641
I1
sF0.36120987086998585
I1
sF0.5956178917532596
I1
sF0.649917371147392
I1
sF0.6289169871416891
I1
sF0.3215876866164904
I1
sF0.6726691825300259
I1
sF0.5381403076004428
I1
sF0.5821821839065722
I1
sF0.34558809621620845
I1
sF0.7794907261984663
I1
sF0.07637626158259735
I1
sF0.5644693565484676
I1
sF0.24606538309456508
I1
sF0.4815760951759829
I1
sF0.43072737304875097
I1
sF0.5689668870577514
I1
sF0.6267845851241698
I3
sF0.47780514907878874
I1
sF0.3193603523360774
I1
sF0.3168184900170041
I1
sF0.610950737457927
I1
sF0.28017999347941763
I7
sF0.13605756997417962
I1
sF0.20720446958581093
I1
sF0.5314720024927404
I2
sF0.7887003773242376
I1
sF0.1235403762236695
I1
sF0.5649404942797093
I1
sF0.3354006027496493
I1
sF0.2540162888638167
I1
sF0.5883481949758644
I1
sF0.7745923678191743
I1
sF0.5033212982197949
I2
sF0.35852887702752095
I1
sF0.7606649879966383
I1
sF0.6251698054595171
I1
sF0.4685991082746918
I1
sF0.46803787108549083
I1
sF0.246845557635349
I1
sF0.47808256653581493
I1
sF0.49757340087624624
I1
sF0.1862021260527268
I1
sF0.35567060689796914
I1
sF0.7618082282226031
I1
sF0.5884149801675471
I1
sF0.26257545381445874
I1
sF0.4243351590100426
I7
sF0.2979505446178525
I1
sF0.3217999128160136
I1
sF0.06842968850192396
I1
sF0.3406136452184027
I1
sF0.3346313673663742
I1
sF0.29764024835091274
I1
sF0.03971340318961222
I1
sF0.42660670046790133
I1
sF0.3548437851773991
I3
sF0.0720023041105979
I1
sF0.8089860483288569
I1
sF0.540986038534009
I1
sF0.11914157678695875
I1
sF0.587053410350952
I1
sF0.4195479719003411
I2
sF0.35094850996659477
I1
sF0.7565642548301922
I1
sF0.42267089898636595
I1
sF0.17720674398213943
I1
sF0.20057907664476335
I1
sF0.5861984509253809
I1
sF0.5031629839953989
I1
sF0.07563401820876438
I1
sF0.034634955564408744
I2
sF0.5377594296238438
I1
sF0.43922013448808594
I1
sF0.3552548344392208
I1
sF0.38260907591115334
I1
sF0.3706507169607479
I1
sF0.3908776725690718
I1
sF0.30402702973389817
I1
sF0.27749008939286435
I1
sF0.19835609355202974
I1
sF0.24788591793672682
I1
sF0.7340499440646143
I1
sF0.3667493617710074
I1
sF0.2753588286624617
I2
sF0.21927569150592213
I1
sF0.23391238716229865
I1
sF0.5553814519539942
I1
sF0.16953317256112285
I1
sF0.43593617188823885
I5
sF0.5490092421040875
I1
sF0.5681184917687991
I1
sF0.5105232418568559
I1
sF0.2557818316201201
I1
sF0.5828065165929586
I1
sF0.8135203619206723
I1
sF0.35323068019329495
I8
sF0.3672690050358586
I1
sF0.7208205981208847
I1
sF0.36913129346973017
I1
sF0.6605533893276387
I1
sF0.4113092766213602
I1
sF0.49998959715994956
I1
sF0.1973121936584923
I1
sF0.7161926642919045
I1
sF0.1458029608799511
I1
sF0.7574550591913761
I1
sF0.24801765703614953
I1
sF0.7149259594507692
I1
sF0.34348080347780807
I1
sF0.17314999205177914
I1
sF0.2860313474845118
I1
sF0.8102388065000536
I1
sF0.2230508316609526
I1
sF0.29647647011184236
I3
sF0.5552809011042951
I1
sF0.47728191707281126
I1
sF0.6429226194462775
I1
sF0.6435348793775778
I1
sF0.6240656189799899
I1
sF0.2590202004170345
I1
sF0.38950394729362003
I5
sF0.3162554448382388
I1
sF0.553147305763994
I1
sF0.2677419137043442
I13
sF0.4423341706800247
I1
sF0.25796814698945747
I1
sF0.6431362556808772
I1
sF0.43276667257393675
I1
sF0.646489062933316
I1
sF0.7735681509761834
I1
sF0.6084263305663714
I1
sF0.3215174665872479
I1
sF0.2791654262061994
I1
sF0.5921504501630522
I1
sF0.5760655409202977
I1
sF0.3413792853311875
I1
sF0.593970280188932
I1
sF0.7417438074526576
I1
sF0.3595653800452628
I1
sF0.732418543384302
I1
sF0.3562204878416242
I1
sF0.6064991174894541
I1
sF0.33701992850965523
I1
sF0.35377813437087635
I1
sF0.2872271672926999
I1
sF0.6897602358210346
I1
sF0.7370901424305132
I1
sF0.16225732181250407
I1
sF0.7345030661718327
I2
sF0.4306373783930616
I1
sF0.5913415333217804
I1
sF0.6109106955926117
I1
sF0.14862919969077898
I1
sF0.31523837901326307
I1
sF0.4181129935916742
I1
sF0.7576280122029733
I1
sF0.5505166570672957
I1
sF0.42616024271456937
I1
sF0.486202981843171
I1
sF0.16978110252852263
I6
sF0.27365818400792613
I1
sF0.5803749656366444
I1
sF0.2944577026208246
I1
sF0.3592993308930044
I1
sF0.43239331757207594
I1
sF0.5371239781411289
I1
sF0.4511063417337762
I1
sF0.7061248472390158
I1
sF0.5785387238320022
I1
sF0.5996249402425909
I1
sF0.41239372389448
I1
sF0.014697056033617645
I1
sF0.6925867315692867
I1
sF0.5498790076008537
I1
sF0.5743990747469965
I1
sF0.21018483337868094
I1
sF0.6531582716756412
I1
sF0.04044507990655374
I6
sF0.15234842169315221
I1
sF0.46000246894151975
I1
sF0.41517000269674686
I1
sF0.6568342217675853
I1
sF0.3689790285557494
I1
sF0.3738335897094202
I3
sF0.43029750299992453
I1
sF0.4518890918682684
I1
sF0.2692754810820803
I1
sF0.4732041902149834
I1
sF0.2589487384994295
I17
sF0.4344587879450993
I1
sF0.6129695094381182
I1
sF0.30844546298998915
I1
sF0.3469802706043728
I1
sF0.4861699913760014
I1
sF0.3369480071411404
I1
sF0.7738475855252961
I1
sF0.7093205653426459
I1
sF0.629624490264751
I1
sF0.18523654497618394
I3
sF0.42947215204929107
I1
sF0.6422742687517237
I1
sF0.040363289974706895
I3
sF0.319335286543839
I1
sF0.6154533731135694
I1
sF0.3370526488229122
I1
sF0.5584229390681003
I1
sF0.44574982742996794
I1
sF0.7585278917865177
I1
sF0.14794269638066138
I17
sF0.33470566546624037
I1
sF0.5863925516468356
I1
sF0.19872245949121894
I1
sF0.6370753378396724
I1
sF0.33624489769992927
I1
sF0.3663949563059636
I1
sF0.42217796384371903
I1
sF0.5796825103154084
I1
sF0.23496584200852538
I1
sF0.3710436456735377
I1
sF0.7564491500835785
I1
sF0.5948217986345957
I1
sF0.6014873281257878
I1
sF0.3221596130325537
I1
sF0.6389071260136387
I1
sF0.48248704983688695
I1
sF0.3305596982053038
I1
sF0.6466247405954502
I1
sF0.5019726149831009
I1
sF0.14467726654794924
I1
sF0.07441168295606794
I1
sF0.4804323621806379
I1
sF0.5291046521947852
I1
sF0.6268040583613113
I1
sF0.5145430020000697
I3
sF0.4814563721326829
I1
sF0.32312581246048605
I1
sF0.5605306109079823
I1
sF0.6174966808934659
I1
sF0.6288353918380327
I1
sF0.4858004814802069
I1
sF0.7407893695957289
I1
sF0.22438727760202973
I1
sF0.5521833479723746
I1
sF0.522410594873916
I1
sF0.10189187084991656
I1
sF0.5210959580359296
I1
sF0.2895226254902997
I7
sF0.439730509207682
I1
sF0.5497309861500423
I1
sF0.7142712802412206
I1
sF0.6011965048207684
I1
sF0.477148404344933
I1
sF0.7769639065837707
I1
sF0.3456188361204159
I1
sF0.3632675198877235
I5
sF0.3464877534403444
I1
sF0.26762592140855734
I1
sF0.5286008893152213
I12
sF0.7871982932271007
I1
sF0.2546292494838044
I1
sF0.7178933545323827
I1
sF0.34198748842674886
I1
sF0.6630449334833529
I1
sF0.7016954474102238
I1
sF0.4983452366343924
I1
sF0.36310566137063405
I1
sF0.4625602377617848
I1
sF0.29631567803260767
I1
sF0.23115522095439295
I1
sF0.5220544575683519
I3
sF0.17904496842110415
I4
sF0.2217715455497779
I1
sF0.32988108674878425
I1
sF0.014085904245475274
I1
sF0.25837959459614257
I1
sF0.6990619049308698
I1
sF0.7700131320300263
I1
sF0.19546515720279128
I1
sF0.4669381583543749
I1
sF0.300055763333206
I1
sF0.45319873459136895
I1
sF0.2890129321434877
I4
sF0.22574193496476397
I1
sF0.4260521184312919
I1
sF0.4086162106921597
I1
sF0.5248499403944006
I1
sF0.4314562351071026
I1
sF0.35978200770670427
I1
sF0.23407460624342466
I1
sF0.08687580324590248
I1
sF0.4333386775378528
I1
sF0.33496513971192665
I1
sF0.6328681017956796
I1
sF0.7178419259235485
I1
sF0.3106900766797335
I1
sF0.5719485915280652
I1
sF0.5011216513386352
I1
sF0.13216372009101796
I1
sF0.27386442230164276
I1
sF0.7539180027492176
I1
sF0.40938042239560013
I1
sF0.17998363428463446
I1
sF0.4339661969190484
I1
sF0.01191104694783015
I1
sF0.778763851060042
I1
sF0.3422173663501886
I1
sF0.21878810771338064
I1
sF0.4625783236742776
I1
sF0.265793844024589
I1
sF0.3448630844538938
I1
sF0.5887773935272786
I1
sF0.335075783391809
I1
sF0.11225853563591937
I1
sF0.5928786764334821
I1
sF0.2672685868168818
I1
sF0.1643633491704738
I1
sF0.2759789721972601
I1
sF0.35122888373170824
I3
sF0.30564730502421433
I1
sF0.33076577568757587
I1
sF0.31997161366059207
I1
sF0.14163222556973346
I1
sF0.3198073436964098
I1
sF0.616982566038596
I1
sF0.40407507966101686
I1
sF0.36345321838139266
I1
sF0.535551178689832
I1
sF0.7693756719532279
I1
sF0.7706121111517754
I1
sF0.35118394686849536
I1
sF0.7980946248781695
I1
sF0.2633374309833956
I1
sF0.5676375594679771
I1
sF0.4298672072060399
I1
sF0.33604520511676905
I8
sF0.5077279815919409
I1
sF0.08519427513705971
I2
sF0.8122671894700253
I9
sF0.4354350006608535
I1
sF0.5441579636522966
I1
sF0.5526496257473047
I1
sF0.419447844853706
I1
sF0.08122955416108235
I1
sF0.633690013595713
I1
sF0.40558380695438156
I1
sF0.4361857880661082
I2
sF0.3162061694475099
I1
sF0.6538993389498738
I1
sF0.35462164131466667
I1
sF0.19326434289520839
I1
sF0.47039528220165294
I1
sF0.4633061447947776
I1
sF0.24799869329418656
I1
sF0.797941602496379
I1
sF0.4746518922777047
I1
sF0.23750833681832914
I1
sF0.35535403147622746
I1
sF0.639420912883611
I1
sF0.3076884384125712
I1
sF0.5411733859753103
I1
sF0.39187821256854954
I1
sF0.7626556672345124
I1
sF0.4877146032007216
I1
sF0.6616036272429852
I1
sF0.2371094002660252
I1
sF0.18360112575044796
I1
sF0.19430910052849387
I1
sF0.3569129443691082
I2
sF0.3033998983696245
I2
sF0.6310536425745409
I1
sF0.5752801902365996
I1
sF0.2819451853775902
I1
sF0.8127522050340976
I3
sF0.49574194273631406
I1
sF0.6545248760441887
I1
sF0.590249498962981
I4
sF0.35594640251939774
I2
sF0.21998106492910335
I1
sF0.6020936601446789
I1
sF0.6841151358195435
I1
sF0.2782228364896225
I1
sF0.46849702207016
I1
sF0.7848624877901842
I1
sF0.4075502020014217
I1
sF0.40311931218016317
I1
sF0.35061930382289064
I1
sF0.49608086368582227
I1
sF0.5245337254026368
I1
sF0.7159039143985864
I1
sF0.5895702616359227
I1
sF0.6791486562309892
I1
sF0.5965421027663381
I1
sF0.7406113919928563
I1
sF0.6202397201391576
I1
sF0.31598471950793394
I1
sF0.7055182337421451
I2
sF0.36770939256064905
I1
sF0.38995348858420226
I1
sF0.5836305531152814
I1
sF0.37092399331616566
I1
sF0.6215293376833914
I1
sF0.39969259961763737
I1
sF0.4437056135959695
I1
stp106
Rp107
sg23
I601
sg24
F1083.5
sbs(I2
g25
tp108
g0
(g12
g2
Ntp109
Rp110
(dp111
g16
F0.5
sg17
I217
sg18
g19
((dp112
I0
I118
sI1
I27
sI2
I20
sI3
I7
sI4
I8
sI5
I2
sI6
I6
sI7
I4
sI8
I9
sI9
I4
sI10
I1
sI13
I1
sI14
I1
sI16
I1
sI20
I1
sI22
I1
sI25
I1
sI29
I1
sI34
I2
sI36
I1
sI42
I1
stp113
Rp114
sg23
I27
sg24
F230.5
sbs(I2
g64
tp115
g0
(g12
g2
Ntp116
Rp117
(dp118
g16
F0.5
sg17
I217
sg18
g19
((dp119
I0
I79
sI1
I42
sI2
I15
sI3
I12
sI4
I6
sI5
I1
sI6
I5
sI7
I2
sI8
I8
sI9
I4
sI10
I6
sI13
I1
sI14
I2
sI15
I1
sI16
I1
sI17
I1
sI19
I2
sI20
I2
sI21
I1
sI24
I2
sI26
I4
sI27
I1
sI28
I2
sI32
I1
sI33
I1
sI35
I1
sI41
I1
sI54
I2
sI184
I1
sI61
I1
sI63
I1
sI71
I1
sI98
I1
sI131
I1
sI105
I3
sI108
I1
sI125
I1
stp120
Rp121
sg23
I47
sg24
F240.5
sbssS'_label_probdist'
p122
g0
(g12
g2
Ntp123
Rp124
(dp125
g16
F0.5
sg17
I1000
sg18
g19
((dp126
I1
I783
sI2
I217
stp127
Rp128
sg23
I2
sg24
F1001.0
sbsb.