ccopy_reg
_reconstructor
p0
(cnltk.classify.naivebayes
NaiveBayesClassifier
p1
c__builtin__
object
p2
Ntp3
Rp4
(dp5
S'_labels'
p6
(lp7
I1
aI2
asS'_feature_probdist'
p8
(dp9
(I1
S'tooLongSequences'
p10
tp11
g0
(cnltk.probability
ELEProbDist
p12
g2
Ntp13
Rp14
(dp15
S'_gamma'
p16
F0.5
sS'_N'
p17
I783
sS'_freqdist'
p18
cnltk.probability
FreqDist
p19
((dp20
I00
I557
sI01
I226
stp21
Rp22
sS'_bins'
p23
I2
sS'_divisor'
p24
F784.0
sbs(I1
S'isAboutED'
p25
tp26
g0
(g12
g2
Ntp27
Rp28
(dp29
g16
F0.5
sg17
I783
sg18
g19
((dp30
I0
I361
sI1
I121
sI2
I87
sI3
I17
sI4
I69
sI5
I17
sI6
I29
sI7
I1
sI8
I22
sI9
I4
sI10
I8
sI12
I9
sI13
I1
sI14
I19
sI15
I1
sI16
I8
sI18
I8
sI20
I1
stp31
Rp32
sg23
I21
sg24
F793.5
sbs(I2
S'isAboutHealth'
p33
tp34
g0
(g12
g2
Ntp35
Rp36
(dp37
g16
F0.5
sg17
I217
sg18
g19
((dp38
I0
I35
sI1
I41
sI2
I37
sI3
I27
sI4
I9
sI5
I11
sI6
I5
sI7
I5
sI8
I4
sI9
I4
sI10
I1
sI11
I7
sI12
I1
sI13
I1
sI14
I5
sI17
I2
sI18
I2
sI19
I1
sI21
I3
sI23
I1
sI25
I1
sI26
I2
sI29
I1
sI31
I1
sI32
I1
sI38
I1
sI39
I1
sI41
I1
sI49
I1
sI50
I1
sI61
I1
sI81
I1
sI89
I1
sI96
I1
stp39
Rp40
sg23
I51
sg24
F242.5
sbs(I1
g33
tp41
g0
(g12
g2
Ntp42
Rp43
(dp44
g16
F0.5
sg17
I783
sg18
g19
((dp45
I0
I189
sI1
I115
sI2
I61
sI3
I102
sI4
I45
sI5
I25
sI6
I52
sI7
I7
sI8
I46
sI9
I9
sI10
I16
sI11
I10
sI12
I21
sI13
I9
sI14
I7
sI15
I7
sI16
I8
sI17
I3
sI18
I2
sI19
I2
sI20
I1
sI22
I1
sI23
I5
sI24
I2
sI26
I1
sI27
I1
sI28
I4
sI30
I5
sI32
I3
sI39
I1
sI40
I2
sI41
I1
sI43
I3
sI44
I4
sI45
I5
sI47
I2
sI49
I1
sI52
I2
sI53
I1
sI54
I1
sI228
I1
stp46
Rp47
sg23
I51
sg24
F808.5
sbs(I2
S'cosineSimilarityToHam'
p48
tp49
g0
(g12
g2
Ntp50
Rp51
(dp52
g16
F0.5
sg17
I217
sg18
g19
((dp53
F1.0000000000000009
I10
sF1.0000000000000013
I10
sF0.9999999999999991
I5
sF1.0000000000000018
I4
sF1.0
I7
sF1.0000000000000002
I13
sF0.9999999999999958
I2
sF0.9999999999999997
I7
sF1.000000000000002
I5
sF0.9999999999999994
I8
sF0.9999999999999976
I1
sF0.9999999999999984
I4
sF1.0000000000000073
I1
sF0.9999999999999993
I16
sF1.0000000000000022
I7
sF0.9999999999999933
I1
sF0.9999999999999989
I7
sF0.999999999999999
I2
sF1.0000000000000007
I15
sF0.9999999999999999
I2
sF1.0000000000000024
I4
sF0.999999999999997
I3
sF0.9999999999999978
I3
sF0.9999999999999987
I4
sF0.9999999999999996
I7
sF1.0000000000000027
I1
sF0.9999999999999856
I1
sF0.9999999999999992
I2
sF1.000000000000001
I8
sF1.0000000000000089
I1
sF1.0000000000000029
I2
sF1.0000000000000455
I1
sF0.9999999999999981
I3
sF1.0000000000000047
I1
sF0.9999999999999881
I1
sF1.0000000000000004
I19
sF0.9999999999999998
I8
sF1.0000000000000036
I1
sF0.9999999999999956
I1
sF1.000000000000004
I1
sF0.9999999999999977
I1
sF1.0000000000000016
I6
sF0.9999999999999964
I1
sF1.0000000000000038
I1
sF1.0000000000000318
I1
sF0.9999999999999886
I1
sF0.9999999999999988
I5
sF0.9999999999999952
I1
sF0.9999999999999969
I1
stp54
Rp55
sg23
I584
sg24
F509.0
sbs(I1
S'isAboutMoney'
p56
tp57
g0
(g12
g2
Ntp58
Rp59
(dp60
g16
F0.5
sg17
I783
sg18
g19
((dp61
I0
I144
sI1
I143
sI2
I125
sI3
I145
sI4
I69
sI5
I12
sI6
I81
sI7
I10
sI8
I22
sI9
I7
sI10
I8
sI11
I3
sI12
I1
sI13
I1
sI14
I1
sI15
I1
sI16
I1
sI17
I1
sI18
I2
sI19
I1
sI21
I2
sI24
I1
sI40
I1
sI126
I1
stp62
Rp63
sg23
I28
sg24
F797.0
sbs(I2
S'cosineSimilarityToSpam'
p64
tp65
g0
(g12
g2
Ntp66
Rp67
(dp68
g16
F0.5
sg17
I217
sg18
g19
((dp69
F0.5492045904136289
I1
sF0.5519795471279195
I1
sF0.6204223710212665
I1
sF0.6220486576419592
I1
sF0.5974180792872799
I1
sF0.5565800770730379
I1
sF0.5607936497114273
I1
sF0.5198950886924635
I1
sF0.5268020760356289
I1
sF0.7751732008009049
I1
sF0.5795779375167094
I1
sF0.5481441178133912
I1
sF0.26440072929253455
I1
sF0.7796588122495642
I1
sF0.6317862702482453
I1
sF0.5006363598373589
I1
sF0.49558700194305927
I1
sF0.2718060126949587
I1
sF0.5288875328675433
I1
sF0.594402098724847
I1
sF0.3425971395756704
I1
sF0.45228792563052556
I2
sF0.6268613608223178
I1
sF0.643116876314565
I1
sF0.5735657496264901
I1
sF0.5553250600372821
I1
sF0.6876378352965665
I1
sF0.8342097113455236
I1
sF0.1578825790255704
I1
sF0.35335840393152007
I1
sF0.8017709578199581
I1
sF0.7142193666082732
I1
sF0.6544640415870613
I1
sF0.7446148761594956
I1
sF0.16416103592506964
I1
sF0.6228292376747482
I1
sF0.29236845519414734
I1
sF0.8180840427361425
I1
sF0.620902342079919
I1
sF0.7011218499482279
I1
sF0.6885526627435157
I1
sF0.4599167741979666
I1
sF0.6065364348159906
I1
sF0.4125362876394855
I1
sF0.5738502053752009
I1
sF0.4223863150458504
I1
sF0.5412726946329289
I1
sF0.5681183882996754
I1
sF0.1266614222007282
I1
sF0.6404893982202085
I1
sF0.26683691113466
I1
sF0.6647589805097196
I1
sF0.521248878922361
I1
sF0.5587197646643274
I1
sF0.47429397932859707
I1
sF0.49623766828047255
I1
sF0.5384934609653356
I1
sF0.4981938949399411
I1
sF0.7219527470204558
I1
sF0.490770733597893
I1
sF0.784133746238888
I1
sF0.4978645705496888
I1
sF0.594723538540415
I1
sF0.4763787187357099
I1
sF0.4760475171780755
I1
sF0.31902266228434867
I1
sF0.5659000360739916
I1
sF0.6130722397801062
I1
sF0.6288641330104042
I1
sF0.46097537896681634
I1
sF0.6551276105002426
I1
sF0.25125579340953363
I1
sF0.23415209215380003
I2
sF0.6167326846986108
I1
sF0.6483629629879836
I1
sF0.7756894520988457
I1
sF0.6355508286331962
I1
sF0.6124742946092487
I1
sF0.5888622729874398
I1
sF0.47793687177082006
I1
sF0.7385476568556851
I1
sF0.28234057354203995
I1
sF0.44797830526035914
I1
sF0.604735948478309
I1
sF0.40247612161887747
I1
sF0.59839759221125
I1
sF0.6188906231774546
I1
sF0.6139170526385177
I1
sF0.32109881354317704
I1
sF0.6654196755298993
I1
sF0.660804139766584
I1
sF0.613457936241374
I1
sF0.705173838595119
I1
sF0.1428469689629556
I1
sF0.4153070992617339
I1
sF0.4870625094717467
I2
sF0.27156561238914345
I1
sF0.5609177279863787
I1
sF0.6187869253911269
I1
sF0.4914876791660828
I1
sF0.3175701480317978
I1
sF0.321051210097787
I1
sF0.2626077532925331
I1
sF0.6555184133462935
I1
sF0.5619062224277156
I1
sF0.5713099296511835
I1
sF0.555007002199455
I1
sF0.5397530299436336
I1
sF0.6248887865366071
I1
sF0.48399228305225517
I1
sF0.7213944299578143
I1
sF0.41895186007678514
I1
sF0.5206167924764386
I1
sF0.4283453902809679
I1
sF0.5806766626851452
I1
sF0.7655064050111052
I1
sF0.4317035394748875
I1
sF0.8049062710919028
I1
sF0.5037800298067237
I1
sF0.5221091740423577
I1
sF0.647494935607278
I1
sF0.5842851640920257
I1
sF0.5470036518020666
I1
sF0.20536348852981223
I2
sF0.6455997487448345
I1
sF0.626848366449327
I1
sF0.4386481298913646
I1
sF0.1944091698376232
I2
sF0.5373822772355983
I1
sF0.3038485816758036
I1
sF0.48944353369537175
I2
sF0.28947468506567786
I1
sF0.7212778728515132
I1
sF0.38177951361345386
I1
sF0.41905817746174695
I1
sF0.13449428558154417
I1
sF0.5907123298997774
I1
sF0.6167327609828788
I1
sF0.47501917985816844
I2
sF0.6152302490843322
I1
sF0.7047728776379878
I1
sF0.2622434737990705
I1
sF0.11361714363298936
I1
sF0.25876149298521756
I1
sF0.6271681684796676
I1
sF0.6812190408923632
I1
sF0.34752759351309076
I2
sF0.20407144763321367
I1
sF0.6655139394087868
I2
sF0.3249799923634049
I1
sF0.5487536836693262
I1
sF0.6369354181669755
I1
sF0.4032561509446211
I1
sF0.6077365345727663
I1
sF0.5991612586461144
I1
sF0.6011380635116936
I1
sF0.3066622964913248
I1
sF0.4740160464960783
I1
sF0.4713376723102728
I1
sF0.5485839381673299
I1
sF0.30207297898583785
I1
sF0.5349148833717373
I1
sF0.15124200660941137
I1
sF0.48883590886719747
I1
sF0.6003279252376413
I1
sF0.6611337234261877
I1
sF0.1635216369625509
I1
sF0.24271737481762629
I1
sF0.545642812394854
I1
sF0.8256616196245385
I1
sF0.482599477454232
I2
sF0.3265636968315655
I1
sF0.5127613865403127
I1
sF0.6263513203516786
I1
sF0.576510661750379
I1
sF0.8111717352972593
I1
sF0.5633730545111886
I1
sF0.7249865194518751
I1
sF0.618333545259963
I1
sF0.3105374426916264
I1
sF0.3437443845264687
I1
sF0.7944073452942766
I1
sF0.566930749177084
I1
sF0.5676958351461419
I1
sF0.2596264067679888
I2
sF0.46413383733297814
I1
sF0.4946781310855776
I1
sF0.5116219353403032
I1
sF0.5398723924474158
I1
sF0.476733160129984
I1
sF0.724247679220114
I1
sF0.5280523085385938
I1
sF0.08275874987132904
I1
sF0.11615359638115745
I1
sF0.6400871169512327
I1
sF0.6083221334152817
I1
sF0.5667419337471246
I1
sF0.6538476855569859
I1
sF0.720565699068335
I1
sF0.6683559348764927
I1
sF0.29091572478570527
I1
sF0.6308543278287386
I1
sF0.6494119132065596
I1
sF0.4681348784410071
I1
sF0.5790765274362929
I1
sF0.6660163401106929
I1
stp70
Rp71
sg23
I293
sg24
F363.5
sbs(I2
g10
tp72
g0
(g12
g2
Ntp73
Rp74
(dp75
g16
F0.5
sg17
I217
sg18
g19
((dp76
I00
I160
sI01
I57
stp77
Rp78
sg23
I2
sg24
F218.0
sbs(I1
g64
tp79
g0
(g12
g2
Ntp80
Rp81
(dp82
g16
F0.5
sg17
I783
sg18
g19
((dp83
F1.0000000000000056
I2
sF1.0
I49
sF1.0000000000000036
I1
sF0.9999999999999984
I5
sF0.9999999999999949
I3
sF1.0000000000000062
I1
sF0.9999999999999928
I1
sF1.0000000000000002
I89
sF0.9999999999999932
I1
sF0.9999999999999925
I2
sF1.000000000000009
I2
sF1.0000000000000004
I60
sF0.9999999999999987
I13
sF1.0000000000000049
I1
sF0.9999999999999989
I16
sF0.9999999999999999
I50
sF1.0000000000000007
I42
sF0.999999999999997
I2
sF1.0000000000000042
I4
sF0.9999999999999978
I2
sF1.000000000000012
I1
sF1.0000000000000047
I1
sF1.000000000000008
I1
sF0.9999999999999971
I3
sF1.0000000000000113
I1
sF0.9999999999999953
I2
sF0.9999999999999992
I18
sF1.000000000000001
I18
sF0.9999999999999972
I2
sF0.999999999999995
I3
sF0.9999999999999936
I1
sF0.9999999999999929
I1
sF1.000000000000005
I1
sF0.9999999999999968
I2
sF1.0000000000000013
I20
sF0.9999999999999973
I2
sF0.9999999999999974
I2
sF0.9999999999999986
I3
sF1.0000000000000016
I5
sF0.9999999999999939
I4
sF0.9999999999999943
I20
sF0.9999999999999982
I4
sF1.0000000000000009
I22
sF1.0000000000000087
I4
sF0.9999999999999938
I1
sF1.0000000000000018
I4
sF0.9999999999999976
I2
sF0.999999999999994
I7
sF1.0000000000000044
I3
sF0.9999999999999979
I2
sF0.9999999999999997
I37
sF1.000000000000002
I7
sF0.9999999999999977
I3
sF1.0000000000000115
I1
sF0.9999999999999993
I18
sF1.0000000000000022
I5
sF0.9999999999999996
I22
sF0.9999999999999951
I2
sF0.999999999999999
I12
sF1.0000000000000122
I2
sF1.0000000000000024
I2
sF0.9999999999999926
I1
sF0.9999999999999948
I2
sF0.9999999999999966
I2
sF1.0000000000000027
I5
sF0.999999999999998
I6
sF1.0000000000000053
I3
sF0.9999999999999923
I1
sF0.9999999999999962
I1
sF1.0000000000000064
I1
sF1.0000000000000029
I2
sF0.9999999999999981
I4
sF0.9999999999999941
I10
sF0.999999999999992
I1
sF0.9999999999999998
I32
sF1.000000000000003
I5
sF0.9999999999999991
I46
sF1.000000000000004
I2
sF1.0000000000000118
I2
sF0.9999999999999956
I3
sF0.9999999999999994
I17
sF1.0000000000000038
I2
sF1.0000000000000033
I3
sF0.9999999999999983
I4
sF0.9999999999999988
I7
sF0.9999999999999952
I1
sF0.9999999999999967
I3
stp84
Rp85
sg23
I293
sg24
F929.5
sbs(I1
g48
tp86
g0
(g12
g2
Ntp87
Rp88
(dp89
g16
F0.5
sg17
I783
sg18
g19
((dp90
F0.0
I6
sF0.4181129935916742
I1
sF0.6657588493167755
I1
sF0.7947133385293712
I1
sF0.2852152190672631
I1
sF0.20465564837851014
I1
sF0.7891948270959578
I1
sF0.3822146688355709
I2
sF0.47522223367170463
I1
sF0.43787038882000023
I1
sF0.17966831037883663
I1
sF0.2873740265628941
I1
sF0.43256998779321787
I1
sF0.41694570338542614
I1
sF0.2765325387232909
I1
sF0.7106778786894644
I1
sF0.2540162888638167
I1
sF0.4280545807812618
I1
sF0.3205173113733816
I2
sF0.25178934170198175
I1
sF0.37749783372046175
I1
sF0.47288085118486634
I1
sF0.3632382274726083
I1
sF0.4918397786737521
I1
sF0.7247877370901925
I1
sF0.6289530067944784
I1
sF0.34277416644033754
I1
sF0.22614700307643962
I1
sF0.07088441014933536
I1
sF0.3517499117327676
I1
sF0.26275517243620483
I1
sF0.5928919659527091
I1
sF0.5921068254470898
I1
sF0.6637508937391011
I1
sF0.2549059609406278
I1
sF0.3509502847847244
I2
sF0.492724323611651
I1
sF0.7001648012557504
I1
sF0.7944073452942765
I1
sF0.06522855894875458
I1
sF0.2639713582283154
I1
sF0.5408740635089411
I5
sF0.38311937618035674
I1
sF0.2960222615468421
I1
sF0.682672326674851
I1
sF0.4446706431713033
I1
sF0.4113092766213602
I1
sF0.27969232688934426
I1
sF0.40223292081732465
I2
sF0.3285639643251733
I7
sF0.550352265371058
I3
sF0.7745238090895858
I1
sF0.33743902680424825
I1
sF0.5895055099699608
I1
sF0.7034183318087226
I1
sF0.7520063696659759
I1
sF0.39647189746971306
I1
sF0.49196017507052
I1
sF0.2955044932296265
I1
sF0.41556970608548444
I5
sF0.13402774106187743
I1
sF0.7100671233363544
I1
sF0.4410032485096181
I1
sF0.3468372088097084
I1
sF0.6601861499136378
I1
sF0.19751322679541822
I1
sF0.3340456983883019
I1
sF0.7853213376647714
I1
sF0.2169238594170116
I3
sF0.6548038604831066
I2
sF0.48911267011813975
I1
sF0.6707526352272355
I1
sF0.7116361840468921
I1
sF0.22836497418172308
I2
sF0.696755290302436
I1
sF0.4472145452228658
I1
sF0.5819431589814876
I1
sF0.36253315498246286
I1
sF0.45319873459136895
I1
sF0.5224589204868023
I1
sF0.2254174086668581
I1
sF0.8152612586038245
I3
sF0.3486432510784208
I1
sF0.7574735708366253
I1
sF0.3452598539351563
I1
sF0.36345321838139266
I1
sF0.35219831183733435
I1
sF0.3744373042011537
I1
sF0.6406146494841178
I1
sF0.43618578806610825
I4
sF0.10119028669212907
I2
sF0.22500000000000006
I1
sF0.49758713657635967
I1
sF0.4796272638290708
I1
sF0.5687560134315969
I1
sF0.635156542806247
I1
sF0.3692942417735916
I1
sF0.24589655605369867
I1
sF0.7889484494757232
I1
sF0.5095237830836558
I1
sF0.36970444274134867
I1
sF0.794784462257114
I1
sF0.4130299889910919
I5
sF0.21281413268968719
I1
sF0.5104119017790987
I1
sF0.535551178689832
I1
sF0.306427204849593
I1
sF0.2658984310220886
I1
sF0.2248792476677354
I1
sF0.31650253698895586
I1
sF0.3907113932476909
I3
sF0.5792216622462464
I1
sF0.4134413886485359
I1
sF0.7930511135747658
I1
sF0.7131363824054417
I1
sF0.719978997746783
I1
sF0.4929498203585755
I1
sF0.33611021082207027
I1
sF0.5617446437048693
I1
sF0.8256616196245382
I1
sF0.10346450967694876
I1
sF0.3764259643557139
I3
sF0.6505117090061044
I1
sF0.5901643909946332
I1
sF0.4266377547379905
I7
sF0.5201627937326982
I1
sF0.4663604373865077
I1
sF0.4291278033778825
I1
sF0.2823882025724987
I17
sF0.2782968220876566
I1
sF0.11453339309232866
I1
sF0.26002227890489493
I1
sF0.08621415483842651
I40
sF0.539098262839328
I3
sF0.3404576788765998
I1
sF0.19241298255332173
I1
sF0.275363566940237
I1
sF0.5161771830865108
I1
sF0.3215876866164904
I1
sF0.2542669640857337
I1
sF0.3559081619532766
I1
sF0.5019130838659037
I1
sF0.09728583913568986
I1
sF0.24806464162490802
I1
sF0.30844546298998915
I1
sF0.24606538309456508
I1
sF0.4815760951759829
I1
sF0.43072737304875097
I1
sF0.47466732132522654
I1
sF0.5689668870577514
I1
sF0.5427737465132622
I1
sF0.5897116920420008
I1
sF0.3726355324942515
I1
sF0.13473743928083265
I1
sF0.039817365155943966
I1
sF0.5314720024927404
I2
sF0.4944885998789829
I1
sF0.3530208059038693
I1
sF0.346418399861435
I1
sF0.7994189660869447
I1
sF0.4384190046812937
I1
sF0.615296883069201
I1
sF0.6544828847526288
I1
sF0.6705749482974486
I1
sF0.4386481298913646
I1
sF0.5417602577393639
I1
sF0.7748270571316219
I1
sF0.4685991082746918
I1
sF0.48205819546440987
I1
sF0.18364430884234775
I1
sF0.246845557635349
I1
sF0.6680305589024236
I1
sF0.24536044879696428
I2
sF0.336541086440446
I1
sF0.7730906652086214
I1
sF0.4022329208173247
I1
sF0.5505166570672957
I1
sF0.34260217019286265
I1
sF0.26257545381445874
I1
sF0.6532552989162361
I1
sF0.5935986794024339
I1
sF0.4983147776917939
I1
sF0.5053282598995429
I1
sF0.3406136452184027
I1
sF0.5980664151591945
I1
sF0.5385070712560686
I1
sF0.3346313673663742
I1
sF0.29764024835091274
I1
sF0.7908886370202632
I1
sF0.24210508916143902
I1
sF0.361838028104398
I1
sF0.5366242902967371
I1
sF0.4783367411219438
I1
sF0.7164856013870938
I1
sF0.42781870711067105
I1
sF0.3632983487631768
I1
sF0.5907152740871375
I1
sF0.4847800068192323
I1
sF0.5310975204629506
I1
sF0.47620051594287693
I1
sF0.34411268980350423
I1
sF0.15958937808448026
I1
sF0.3265252675771549
I1
sF0.4195479719003411
I2
sF0.17310523476143222
I1
sF0.20057907664476335
I1
sF0.45055276198129274
I1
sF0.5861984509253809
I1
sF0.034634955564408744
I2
sF0.5377594296238438
I1
sF0.7817093234122393
I1
sF0.3552548344392208
I1
sF0.2875571912299129
I1
sF0.4973691191076614
I1
sF0.24788591793672682
I1
sF0.7523495182742289
I1
sF0.4306345705749564
I1
sF0.35176614174229526
I1
sF0.4419904502180659
I1
sF0.5892364099989861
I1
sF0.3805005080791929
I1
sF0.8107792468315117
I1
sF0.21927569150592213
I1
sF0.5553814519539942
I1
sF0.5345627420067517
I12
sF0.16953317256112285
I1
sF0.28556509711321065
I1
sF0.6162406588200829
I1
sF0.5681184917687991
I1
sF0.6538993389498738
I1
sF0.15688286379615413
I1
sF0.3997015588241303
I1
sF0.5996119250160435
I1
sF0.5310260546600604
I1
sF0.7208205981208847
I1
sF0.5498790076008537
I1
sF0.7997927017315045
I1
sF0.7549099285239125
I1
sF0.3750724475969146
I1
sF0.1435678447040101
I1
sF0.3811802564684309
I3
sF0.2634184454233936
I1
sF0.7225853840683215
I1
sF0.6736094420121604
I1
sF0.08716093842098174
I1
sF0.38839013964872643
I1
sF0.5913328656104002
I1
sF0.34348080347780807
I1
sF0.6362080149588438
I1
sF0.13216372009101796
I1
sF0.2860313474845118
I1
sF0.37642596435571396
I2
sF0.6620535513596049
I1
sF0.5944285110041974
I1
sF0.34198748842674886
I1
sF0.20257591559617244
I1
sF0.5441579636522966
I1
sF0.42972289615159825
I1
sF0.3891024501869148
I8
sF0.3162554448382388
I1
sF0.25796814698945747
I1
sF0.523862599047052
I1
sF0.4962191555771097
I1
sF0.3215174665872479
I1
sF0.7164196957020019
I1
sF0.4720932245817999
I5
sF0.25655234049025283
I1
sF0.3595653800452628
I1
sF0.732418543384302
I1
sF0.3562204878416242
I1
sF0.7741961613228754
I1
sF0.2659522368029648
I4
sF0.5568063415049748
I1
sF0.5172023007096818
I1
sF0.5992427127157942
I1
sF0.7622906473431847
I1
sF0.2872271672926999
I1
sF0.22784068314802963
I1
sF0.607029471319751
I1
sF0.7345030661718327
I2
sF0.4306373783930616
I1
sF0.35813202455037035
I1
sF0.7902317447748504
I1
sF0.4645237162723957
I1
sF0.10851449322077011
I2
sF0.42297985466916954
I1
sF0.4675534011055278
I1
sF0.17711002898362163
I1
sF0.37391998968239604
I1
sF0.42616024271456937
I1
sF0.19808401099442896
I1
sF0.3592993308930044
I1
sF0.3344965271820569
I1
sF0.6596446620373166
I1
sF0.1874366552017083
I1
sF0.4274068185699019
I1
sF0.4451458763600975
I1
sF0.34891577323719625
I1
sF0.41239372389448
I1
sF0.690797400457166
I1
sF0.6109147797971572
I1
sF0.38260907591115334
I1
sF0.2791654262061994
I1
sF0.775738014526951
I1
sF0.5587018360334853
I1
sF0.23121669023375485
I1
sF0.04044507990655374
I6
sF0.15234842169315221
I1
sF0.5109146561499623
I1
sF0.31429677034445824
I1
sF0.5600710876721371
I1
sF0.33747606637781447
I1
sF0.46832685851199307
I1
sF0.6645094015918382
I1
sF0.249083426167799
I1
sF0.8152195081994189
I28
sF0.6423193000749181
I1
sF0.6333700310196417
I1
sF0.4732041902149834
I1
sF0.4344587879450993
I1
sF0.5644693565484676
I1
sF0.3469802706043728
I1
sF0.35362356635751474
I1
sF0.4470811466312158
I1
sF0.26850980356075554
I1
sF0.7225052086459836
I1
sF0.5069717181036429
I1
sF0.5407947378150647
I1
sF0.3717240736305378
I13
sF0.319335286543839
I1
sF0.7253247600299038
I1
sF0.3370526488229122
I1
sF0.6618529696767863
I1
sF0.5584229390681003
I1
sF0.4023286787323142
I1
sF0.3199511270651968
I1
sF0.6399120320930997
I1
sF0.6012798796072767
I1
sF0.7222687268870094
I1
sF0.06740160649599503
I1
sF0.2371094002660252
I1
sF0.19872245949121894
I1
sF0.5182351196679885
I1
sF0.2819451853775902
I1
sF0.3738335897094202
I3
sF0.11373649983203614
I1
sF0.03403481342405807
I1
sF0.19790260098157453
I17
sF0.495873771469594
I1
sF0.16002879669968842
I1
sF0.6984431023218329
I1
sF0.6854085216135036
I1
sF0.3221596130325537
I1
sF0.07441168295606794
I1
sF0.818479957988624
I1
sF0.6544873152007749
I1
sF0.2889560182823132
I1
sF0.3547692027869626
I1
sF0.7763478229683569
I1
sF0.771868177190156
I1
sF0.31988904374720567
I1
sF0.510058594585191
I1
sF0.3711066013406256
I1
sF0.6525375383950511
I1
sF0.6804620771803294
I9
sF0.3763965151264892
I1
sF0.22438727760202973
I1
sF0.17172824318786076
I1
sF0.6716513238246927
I1
sF0.6569881051346019
I1
sF0.5316485995779495
I1
sF0.7771031512076019
I1
sF0.44093185398070533
I1
sF0.31997161366059207
I1
sF0.48618088899419
I1
sF0.540986038534009
I1
sF0.39133273452548123
I1
sF0.7420978340156384
I2
sF0.223589474856352
I1
sF0.7195310413132135
I1
sF0.666404229821001
I1
sF0.6487114257600373
I1
sF0.21775262728420586
I4
sF0.26762592140855734
I1
sF0.3400752488160706
I1
sF0.611714830058209
I1
sF0.2546292494838044
I1
sF0.5062396916601131
I1
sF0.5571632340539913
I1
sF0.10494983148778074
I1
sF0.23463184632866224
I1
sF0.45830160388466035
I1
sF0.6440968536585651
I1
sF0.24537176897036295
I1
sF0.4669381583543749
I1
sF0.6610815938963743
I1
sF0.07315757986564178
I1
sF0.6979284383289878
I1
sF0.7843532669519057
I1
sF0.21998106492910335
I1
sF0.8001058238286709
I1
sF0.6102736151991717
I1
sF0.5503328046028391
I1
sF0.1603479436287669
I1
sF0.5596969336097972
I1
sF0.3011005043901723
I1
sF0.6662681361692426
I1
sF0.32988108674878425
I1
sF0.6700780692925505
I1
sF0.2483714931678692
I1
sF0.8342097113455236
I1
sF0.6803782301693937
I1
sF0.6686275330211422
I1
sF0.17664612174471264
I1
sF0.19546515720279128
I1
sF0.3163738449433184
I7
sF0.5593595909324617
I1
sF0.30905940179571384
I1
sF0.6266642030303146
I1
sF0.590406459343089
I4
sF0.24557561746996948
I1
sF0.7396843881584638
I1
sF0.6236970879767734
I1
sF0.5331778985574324
I1
sF0.22574193496476397
I1
sF0.4086162106921597
I1
sF0.5499001081310161
I1
sF0.040363289974706895
I3
sF0.23407460624342466
I1
sF0.46966019092771116
I1
sF0.22695191127679887
I1
sF0.305974631296848
I1
sF0.38015419738933487
I1
sF0.5307715554429742
I1
sF0.3106900766797335
I1
sF0.10502100630210075
I1
sF0.6024401870429152
I1
sF0.3908776725690718
I1
sF0.7756696446580326
I1
sF0.5653329602875395
I1
sF0.6590642573120495
I1
sF0.25172261124147505
I1
sF0.5279992427034619
I1
sF0.5901704647329927
I1
sF0.3124844250848794
I1
sF0.7652994037321245
I1
sF0.265793844024589
I1
sF0.45240823864489266
I1
sF0.7380276644739915
I1
sF0.7656465508370701
I1
sF0.335075783391809
I1
sF0.2672685868168818
I1
sF0.7370823403368614
I1
sF0.3627548716387263
I1
sF0.5350414332407173
I2
sF0.30564730502421433
I1
sF0.1973121936584923
I1
sF0.6689225306129009
I1
sF0.49994342914385503
I1
sF0.5676375594679771
I1
sF0.4298672072060399
I1
sF0.7145346400374262
I1
sF0.786199450679582
I1
sF0.6821609748958856
I1
sF0.1698094316428545
I6
sF0.5378431124752738
I1
sF0.11935402521878867
I1
sF0.5526496257473047
I1
sF0.6919466353274296
I1
sF0.2590202004170345
I1
sF0.33199579091741543
I1
sF0.65590156335638
I1
sF0.40558380695438156
I1
sF0.40232867873231426
I5
sF0.4361857880661082
I2
sF0.3406671992184831
I7
sF0.7787310119690468
I1
sF0.3162061694475099
I1
sF0.20846972505464184
I1
sF0.19838938790487187
I1
sF0.11914157678695875
I1
sF0.7157947113786535
I1
sF0.26564986768466115
I1
sF0.47039528220165294
I1
sF0.5043233353685589
I1
sF0.24821934981142185
I1
sF0.4995208580296597
I1
sF0.23750833681832914
I1
sF0.31598471950793394
I1
sF0.5594481656199335
I1
sF0.39546271702952673
I1
sF0.7626556672345124
I1
sF0.8007732921710178
I1
sF0.48555144532983235
I1
sF0.6751920565759589
I1
sF0.5974821150652511
I1
sF0.3956311497461994
I1
sF0.5186526283117471
I1
sF0.3331049445889223
I1
sF0.09171148564524263
I1
sF0.3033998983696245
I2
sF0.19276236407250913
I1
sF0.17720674398213943
I1
sF0.6678550173997896
I1
sF0.6545248760441887
I1
sF0.3367427387464215
I1
sF0.33624489769992927
I1
sF0.5866350751188054
I1
sF0.37642596435571385
I3
sF0.6969158305683792
I1
sF0.3603089884014197
I1
sF0.1949652950367077
I1
sF0.37596677306140147
I1
sF0.25517653052589795
I1
sF0.40311931218016317
I1
sF0.012291779057289925
I1
sF0.6376576185700527
I3
sF0.48636149191146427
I1
sF0.6001639165074637
I1
sF0.2614536188655192
I1
sF0.7540156660192691
I1
sF0.7727997127196512
I1
sF0.35462164131466667
I1
sF0.5627341141764186
I1
sF0.7055182337421451
I2
sF0.38995348858420226
I1
sF0.6177859204394129
I1
sF0.4758043244051764
I1
sF0.08621415483842652
I1
sF0.6683559348764927
I1
sF0.2192884668512895
I1
sF0.37092399331616566
I1
sF0.4675010429094982
I1
sF0.7741959076668471
I1
sF0.6739079944523573
I1
stp91
Rp92
sg23
I584
sg24
F1075.0
sbs(I2
g25
tp93
g0
(g12
g2
Ntp94
Rp95
(dp96
g16
F0.5
sg17
I217
sg18
g19
((dp97
I0
I126
sI1
I33
sI2
I22
sI3
I9
sI4
I5
sI5
I1
sI6
I3
sI7
I5
sI8
I3
sI9
I3
sI10
I1
sI14
I1
sI16
I2
sI19
I1
sI25
I1
sI34
I1
stp98
Rp99
sg23
I21
sg24
F227.5
sbs(I2
g56
tp100
g0
(g12
g2
Ntp101
Rp102
(dp103
g16
F0.5
sg17
I217
sg18
g19
((dp104
I0
I82
sI1
I53
sI2
I18
sI3
I15
sI4
I9
sI5
I2
sI6
I8
sI7
I1
sI8
I7
sI9
I4
sI10
I1
sI11
I3
sI13
I2
sI14
I4
sI15
I1
sI20
I3
sI21
I1
sI41
I1
sI43
I1
sI63
I1
stp105
Rp106
sg23
I28
sg24
F231.0
sbssS'_label_probdist'
p107
g0
(g12
g2
Ntp108
Rp109
(dp110
g16
F0.5
sg17
I1000
sg18
g19
((dp111
I1
I783
sI2
I217
stp112
Rp113
sg23
I2
sg24
F1001.0
sbsb.