ccopy_reg
_reconstructor
p0
(cnltk.classify.naivebayes
NaiveBayesClassifier
p1
c__builtin__
object
p2
Ntp3
Rp4
(dp5
S'_labels'
p6
(lp7
S'ham'
p8
aS'spam'
p9
asS'_feature_probdist'
p10
(dp11
(g9
S'isAboutED'
p12
tp13
g0
(cnltk.probability
ELEProbDist
p14
g2
Ntp15
Rp16
(dp17
S'_gamma'
p18
F0.5
sS'_N'
p19
I783
sS'_freqdist'
p20
cnltk.probability
FreqDist
p21
((dp22
I0
I345
sI1
I120
sI2
I93
sI3
I25
sI4
I54
sI5
I14
sI6
I29
sI7
I1
sI8
I22
sI9
I4
sI10
I8
sI12
I9
sI13
I1
sI14
I19
sI15
I1
sI16
I7
sI18
I9
sI20
I1
sI36
I8
sI43
I1
sI45
I6
sI48
I6
stp23
Rp24
sS'_bins'
p25
I27
sS'_divisor'
p26
F796.5
sbs(g8
S'isAboutHealth'
p27
tp28
g0
(g14
g2
Ntp29
Rp30
(dp31
g18
F0.5
sg19
I217
sg20
g21
((dp32
I0
I35
sI1
I40
sI2
I37
sI3
I17
sI4
I9
sI5
I11
sI6
I4
sI7
I5
sI136
I1
sI9
I8
sI10
I1
sI11
I1
sI12
I1
sI13
I5
sI14
I1
sI16
I1
sI17
I2
sI18
I1
sI19
I2
sI148
I1
sI22
I1
sI151
I1
sI25
I1
sI26
I3
sI29
I1
sI31
I1
sI32
I1
sI33
I1
sI38
I1
sI39
I1
sI41
I1
sI8
I3
sI50
I3
sI49
I8
sI81
I1
sI215
I1
sI89
I1
sI222
I2
sI96
I1
sI146
I1
stp33
Rp34
sg25
I56
sg26
F245.0
sbs(g8
S'isAboutMoney'
p35
tp36
g0
(g14
g2
Ntp37
Rp38
(dp39
g18
F0.5
sg19
I217
sg20
g21
((dp40
I0
I79
sI1
I42
sI2
I15
sI3
I12
sI4
I6
sI5
I1
sI6
I5
sI7
I2
sI8
I8
sI9
I4
sI10
I6
sI13
I1
sI14
I2
sI15
I1
sI16
I1
sI17
I1
sI19
I2
sI20
I2
sI21
I1
sI24
I2
sI26
I4
sI27
I1
sI28
I2
sI32
I1
sI33
I1
sI35
I1
sI41
I1
sI54
I2
sI184
I1
sI61
I1
sI63
I1
sI71
I1
sI98
I1
sI131
I1
sI105
I3
sI108
I1
sI125
I1
stp41
Rp42
sg25
I47
sg26
F240.5
sbs(g8
S'HTML'
p43
tp44
g0
(g14
g2
Ntp45
Rp46
(dp47
g18
F0.5
sg19
I217
sg20
g21
((dp48
I00
I204
sI01
I13
stp49
Rp50
sg25
I2
sg26
F218.0
sbs(g9
g43
tp51
g0
(g14
g2
Ntp52
Rp53
(dp54
g18
F0.5
sg19
I783
sg20
g21
((dp55
I00
I480
sI01
I303
stp56
Rp57
sg25
I2
sg26
F784.0
sbs(g9
g27
tp58
g0
(g14
g2
Ntp59
Rp60
(dp61
g18
F0.5
sg19
I783
sg20
g21
((dp62
I0
I172
sI1
I97
sI2
I59
sI3
I106
sI4
I40
sI5
I30
sI6
I62
sI7
I16
sI8
I45
sI9
I12
sI10
I16
sI11
I13
sI12
I23
sI13
I9
sI14
I8
sI15
I7
sI16
I12
sI17
I4
sI18
I3
sI19
I2
sI20
I1
sI22
I1
sI23
I5
sI24
I1
sI25
I1
sI26
I1
sI27
I1
sI28
I4
sI30
I5
sI32
I3
sI39
I1
sI40
I2
sI41
I1
sI43
I3
sI44
I4
sI45
I5
sI47
I2
sI49
I1
sI52
I2
sI53
I1
sI54
I1
sI230
I1
stp63
Rp64
sg25
I56
sg26
F811.0
sbs(g8
g12
tp65
g0
(g14
g2
Ntp66
Rp67
(dp68
g18
F0.5
sg19
I217
sg20
g21
((dp69
I0
I118
sI1
I27
sI2
I20
sI3
I7
sI4
I8
sI5
I2
sI6
I6
sI7
I4
sI8
I9
sI9
I4
sI10
I1
sI13
I1
sI14
I1
sI16
I1
sI20
I1
sI22
I1
sI25
I1
sI29
I1
sI34
I2
sI36
I1
sI42
I1
stp70
Rp71
sg25
I27
sg26
F230.5
sbs(g9
g35
tp72
g0
(g14
g2
Ntp73
Rp74
(dp75
g18
F0.5
sg19
I783
sg20
g21
((dp76
I0
I102
sI1
I103
sI2
I123
sI3
I137
sI4
I116
sI5
I21
sI6
I72
sI7
I21
sI8
I23
sI9
I9
sI10
I14
sI11
I4
sI12
I4
sI13
I3
sI14
I3
sI15
I1
sI16
I3
sI17
I1
sI18
I4
sI19
I2
sI20
I1
sI21
I4
sI22
I1
sI24
I2
sI25
I2
sI27
I1
sI31
I1
sI160
I1
sI39
I1
sI40
I1
sI41
I1
sI58
I1
stp77
Rp78
sg25
I47
sg26
F806.5
sbs(g8
S'tooLongSequences'
p79
tp80
g0
(g14
g2
Ntp81
Rp82
(dp83
g18
F0.5
sg19
I217
sg20
g21
((dp84
I00
I217
stp85
Rp86
sg25
I1
sg26
F217.5
sbs(g9
g79
tp87
g0
(g14
g2
Ntp88
Rp89
(dp90
g18
F0.5
sg19
I783
sg20
g21
((dp91
I00
I783
stp92
Rp93
sg25
I1
sg26
F783.5
sbssS'_label_probdist'
p94
g0
(g14
g2
Ntp95
Rp96
(dp97
g18
F0.5
sg19
I1000
sg20
g21
((dp98
g8
I217
sg9
I783
stp99
Rp100
sg25
I2
sg26
F1001.0
sbsb.