ccopy_reg
_reconstructor
p0
(cnltk.classify.naivebayes
NaiveBayesClassifier
p1
c__builtin__
object
p2
Ntp3
Rp4
(dp5
S'_labels'
p6
(lp7
S'ham'
p8
aS'spam'
p9
asS'_feature_probdist'
p10
(dp11
(g9
S'isAboutED'
p12
tp13
g0
(cnltk.probability
ELEProbDist
p14
g2
Ntp15
Rp16
(dp17
S'_gamma'
p18
F0.5
sS'_N'
p19
I783
sS'_freqdist'
p20
cnltk.probability
FreqDist
p21
((dp22
I00
I556
sI01
I227
stp23
Rp24
sS'_bins'
p25
I2
sS'_divisor'
p26
F784.0
sbs(g8
S'isAboutHealth'
p27
tp28
g0
(g14
g2
Ntp29
Rp30
(dp31
g18
F0.5
sg19
I217
sg20
g21
((dp32
I00
I112
sI01
I105
stp33
Rp34
sg25
I2
sg26
F218.0
sbs(g8
S'isAboutMoney'
p35
tp36
g0
(g14
g2
Ntp37
Rp38
(dp39
g18
F0.5
sg19
I217
sg20
g21
((dp40
I00
I121
sI01
I96
stp41
Rp42
sg25
I2
sg26
F218.0
sbs(g8
S'HTML'
p43
tp44
g0
(g14
g2
Ntp45
Rp46
(dp47
g18
F0.5
sg19
I217
sg20
g21
((dp48
I00
I204
sI01
I13
stp49
Rp50
sg25
I2
sg26
F218.0
sbs(g9
g43
tp51
g0
(g14
g2
Ntp52
Rp53
(dp54
g18
F0.5
sg19
I783
sg20
g21
((dp55
I00
I480
sI01
I303
stp56
Rp57
sg25
I2
sg26
F784.0
sbs(g9
g27
tp58
g0
(g14
g2
Ntp59
Rp60
(dp61
g18
F0.5
sg19
I783
sg20
g21
((dp62
I00
I328
sI01
I455
stp63
Rp64
sg25
I2
sg26
F784.0
sbs(g8
g12
tp65
g0
(g14
g2
Ntp66
Rp67
(dp68
g18
F0.5
sg19
I217
sg20
g21
((dp69
I00
I163
sI01
I54
stp70
Rp71
sg25
I2
sg26
F218.0
sbs(g9
g35
tp72
g0
(g14
g2
Ntp73
Rp74
(dp75
g18
F0.5
sg19
I783
sg20
g21
((dp76
I00
I205
sI01
I578
stp77
Rp78
sg25
I2
sg26
F784.0
sbs(g8
S'tooLongSequences'
p79
tp80
g0
(g14
g2
Ntp81
Rp82
(dp83
g18
F0.5
sg19
I217
sg20
g21
((dp84
I00
I217
stp85
Rp86
sg25
I1
sg26
F217.5
sbs(g9
g79
tp87
g0
(g14
g2
Ntp88
Rp89
(dp90
g18
F0.5
sg19
I783
sg20
g21
((dp91
I00
I783
stp92
Rp93
sg25
I1
sg26
F783.5
sbssS'_label_probdist'
p94
g0
(g14
g2
Ntp95
Rp96
(dp97
g18
F0.5
sg19
I1000
sg20
g21
((dp98
g8
I217
sg9
I783
stp99
Rp100
sg25
I2
sg26
F1001.0
sbsb.